(dp0
I1
ccopy_reg
_reconstructor
p1
(cmodule.playerbuilding.docs
PlayerBuilding
p2
c__builtin__
object
p3
Ntp4
Rp5
(dp6
S'_changed_fields'
p7
(lp8
sS'_fields_ordered'
p9
(S'id'
p10
S'created_at'
p11
S'updated_at'
p12
S'centerX'
p13
S'centerY'
p14
S'level'
p15
S'productions_dict'
p16
S'status'
p17
S'building_id'
p18
S'end_datetime'
p19
S'start_datetime'
p20
tp21
sS'_initialised'
p22
I01
sS'_dynamic_fields'
p23
g1
(cbson.son
SON
p24
c__builtin__
dict
p25
(dp26
tp27
Rp28
(dp29
S'_SON__keys'
p30
(lp31
sbsS'_created'
p32
I00
sS'_data'
p33
g1
(g24
g25
(dp34
g17
I0
sg20
cdatetime
datetime
p35
(S'\x07\xdf\t\x12\t\x1a+\x05\x8d\xe0'
p36
cbson.tz_util
FixedOffset
p37
(cdatetime
timedelta
p38
(I0
I0
I0
tp39
Rp40
S'UTC'
p41
tp42
Rp43
(dp44
S'_FixedOffset__offset'
p45
g40
sS'_FixedOffset__name'
p46
g41
sbtp47
Rp48
sS'_id'
p49
L1L
sg15
I1
sg11
g35
(S'\x07\xdf\t\x12\t\x1a+\x05\x8d\xe0'
p50
g43
tp51
Rp52
sg12
g35
(S'\x07\xdf\t\x12\t6*\x0c\x96\xa8'
p53
g43
tp54
Rp55
sg16
(dp56
sg19
g35
(S'\x07\xdf\t\x12\t\x1a+\x05\x8d\xe0'
p57
g43
tp58
Rp59
sg13
F8.0
sg14
F9.0
sg18
I101001
stp60
Rp61
(dp62
g30
(lp63
g49
ag11
ag12
ag13
ag14
ag15
ag16
ag17
ag18
ag19
ag20
asbsbsI2
g1
(g2
g3
Ntp64
Rp65
(dp66
g7
(lp67
sg9
g21
sg22
I01
sg23
g1
(g24
g25
(dp68
tp69
Rp70
(dp71
g30
(lp72
sbsg32
I00
sg33
g1
(g24
g25
(dp73
g17
I0
sg20
g35
(S'\x07\xdf\t\x12\t\x1a+\x05\x8d\xe0'
p74
g43
tp75
Rp76
sg49
L2L
sg15
I1
sg11
g35
(S'\x07\xdf\t\x12\t\x1a+\x05\x8d\xe0'
p77
g43
tp78
Rp79
sg12
g35
(S"\x07\xdf\t\x12\t5'\x0b30"
p80
g43
tp81
Rp82
sg16
(dp83
sg19
g35
(S'\x07\xdf\t\x12\t\x1a+\x05\x91\xc8'
p84
g43
tp85
Rp86
sg13
F10.0
sg14
F2.0
sg18
I101002
stp87
Rp88
(dp89
g30
(lp90
g49
ag11
ag12
ag13
ag14
ag15
ag16
ag17
ag18
ag19
ag20
asbsbsI3
g1
(g2
g3
Ntp91
Rp92
(dp93
g7
(lp94
sg9
g21
sg22
I01
sg23
g1
(g24
g25
(dp95
tp96
Rp97
(dp98
g30
(lp99
sbsg32
I00
sg33
g1
(g24
g25
(dp100
g17
I0
sg20
g35
(S'\x07\xdf\t\x12\t\x1a+\x05\x91\xc8'
p101
g43
tp102
Rp103
sg49
L3L
sg15
I1
sg11
g35
(S'\x07\xdf\t\x12\t\x1a+\x05\x91\xc8'
p104
g43
tp105
Rp106
sg12
g35
(S"\x07\xdf\t\x12\t8'\n\x96\xf0"
p107
g43
tp108
Rp109
sg16
(dp110
sg19
g35
(S'\x07\xdf\t\x12\t\x1a+\x05\x91\xc8'
p111
g43
tp112
Rp113
sg13
F0.0
sg14
F3.0
sg18
I101003
stp114
Rp115
(dp116
g30
(lp117
g49
ag11
ag12
ag13
ag14
ag15
ag16
ag17
ag18
ag19
ag20
asbsbsI4
g1
(g2
g3
Ntp118
Rp119
(dp120
g7
(lp121
sg9
g21
sg22
I01
sg23
g1
(g24
g25
(dp122
tp123
Rp124
(dp125
g30
(lp126
sbsg32
I00
sg33
g1
(g24
g25
(dp127
g17
I0
sg20
g35
(S'\x07\xdf\t\x12\t\x1a+\x05\x91\xc8'
p128
g43
tp129
Rp130
sg49
L4L
sg15
I1
sg11
g35
(S'\x07\xdf\t\x12\t\x1a+\x05\x91\xc8'
p131
g43
tp132
Rp133
sg12
g35
(S"\x07\xdf\t\x12\t8'\n\x93\x08"
p134
g43
tp135
Rp136
sg16
(dp137
sg19
g35
(S'\x07\xdf\t\x12\t\x1a+\x05\x91\xc8'
p138
g43
tp139
Rp140
sg13
F17.0
sg14
F3.0
sg18
I101006
stp141
Rp142
(dp143
g30
(lp144
g49
ag11
ag12
ag13
ag14
ag15
ag16
ag17
ag18
ag19
ag20
asbsbsI5
g1
(g2
g3
Ntp145
Rp146
(dp147
g7
(lp148
sg9
g21
sg22
I01
sg23
g1
(g24
g25
(dp149
tp150
Rp151
(dp152
g30
(lp153
sbsg32
I00
sg33
g1
(g24
g25
(dp154
g17
I0
sg20
g35
(S'\x07\xdf\t\x12\t\x1a+\x05\x95\xb0'
p155
g43
tp156
Rp157
sg49
L5L
sg15
I1
sg11
g35
(S'\x07\xdf\t\x12\t\x1a+\x05\x95\xb0'
p158
g43
tp159
Rp160
sg12
g35
(S'\x07\xdf\t\x12\t\x1a+\x05\x95\xb0'
p161
g43
tp162
Rp163
sg16
(dp164
sg19
g35
(S'\x07\xdf\t\x12\t\x1a+\x05\x95\xb0'
p165
g43
tp166
Rp167
sg13
F17.0
sg14
F20.0
sg18
I101014
stp168
Rp169
(dp170
g30
(lp171
g49
ag11
ag12
ag13
ag14
ag15
ag16
ag17
ag18
ag19
ag20
asbsbsI6
g1
(g2
g3
Ntp172
Rp173
(dp174
g7
(lp175
sg9
g21
sg22
I01
sg23
g1
(g24
g25
(dp176
tp177
Rp178
(dp179
g30
(lp180
sbsg32
I00
sg33
g1
(g24
g25
(dp181
g17
I0
sg20
g35
(S'\x07\xdf\t\x12\t5\x06\x07\xc0`'
p182
g43
tp183
Rp184
sg49
L6L
sg15
I1
sg11
g35
(S'\x07\xdf\t\x12\t5\x06\x07\xc0`'
p185
g43
tp186
Rp187
sg12
g35
(S'\x07\xdf\t\x12\t93\x06\xdd\xd0'
p188
g43
tp189
Rp190
sg16
(dp191
sg19
g35
(S'\x07\xdf\t\x12\t5\x06\x07\xc0`'
p192
g43
tp193
Rp194
sg13
F4.0
sg14
F7.0
sg18
I101011
stp195
Rp196
(dp197
g30
(lp198
g49
ag11
ag12
ag13
ag14
ag15
ag16
ag17
ag18
ag19
ag20
asbsbsI7
g1
(g2
g3
Ntp199
Rp200
(dp201
g7
(lp202
sg9
g21
sg22
I01
sg23
g1
(g24
g25
(dp203
tp204
Rp205
(dp206
g30
(lp207
sbsg32
I00
sg33
g1
(g24
g25
(dp208
g17
I0
sg20
g35
(S'\x07\xdf\t\x12\t5\x0e\x02\xc3\x08'
p209
g43
tp210
Rp211
sg49
L7L
sg15
I1
sg11
g35
(S'\x07\xdf\t\x12\t5\x0e\x02\xc3\x08'
p212
g43
tp213
Rp214
sg12
g35
(S'\x07\xdf\t\x12\t93\x06\xe5\xa0'
p215
g43
tp216
Rp217
sg16
(dp218
sg19
g35
(S'\x07\xdf\t\x12\t5\x0e\x02\xc3\x08'
p219
g43
tp220
Rp221
sg13
F14.0
sg14
F7.0
sg18
I101013
stp222
Rp223
(dp224
g30
(lp225
g49
ag11
ag12
ag13
ag14
ag15
ag16
ag17
ag18
ag19
ag20
asbsbsI8
g1
(g2
g3
Ntp226
Rp227
(dp228
g7
(lp229
sg9
g21
sg22
I01
sg23
g1
(g24
g25
(dp230
tp231
Rp232
(dp233
g30
(lp234
sbsg32
I00
sg33
g1
(g24
g25
(dp235
g17
I0
sg20
g35
(S'\x07\xdf\t\x12\t50\t\xf2\xe0'
p236
g43
tp237
Rp238
sg49
L8L
sg15
I1
sg11
g35
(S'\x07\xdf\t\x12\t50\t\xf2\xe0'
p239
g43
tp240
Rp241
sg12
g35
(S'\x07\xdf\t\x12\t6\x0b\x0ec\x98'
p242
g43
tp243
Rp244
sg16
(dp245
sg19
g35
(S'\x07\xdf\t\x12\t50\t\xf2\xe0'
p246
g43
tp247
Rp248
sg13
F9.0
sg14
F17.0
sg18
I101009
stp249
Rp250
(dp251
g30
(lp252
g49
ag11
ag12
ag13
ag14
ag15
ag16
ag17
ag18
ag19
ag20
asbsbsI9
g1
(g2
g3
Ntp253
Rp254
(dp255
g7
(lp256
sg9
g21
sg22
I01
sg23
g1
(g24
g25
(dp257
tp258
Rp259
(dp260
g30
(lp261
sbsg32
I00
sg33
g1
(g24
g25
(dp262
g17
I0
sg20
g35
(S'\x07\xdf\t\x12\t6 \r/\x00'
p263
g43
tp264
Rp265
sg49
L9L
sg15
I1
sg11
g35
(S'\x07\xdf\t\x12\t6 \r/\x00'
p266
g43
tp267
Rp268
sg12
g35
(S'\x07\xdf\t\x12\t93\x06\xe1\xb8'
p269
g43
tp270
Rp271
sg16
(dp272
sg19
g35
(S'\x07\xdf\t\x12\t6 \r/\x00'
p273
g43
tp274
Rp275
sg13
F4.0
sg14
F14.0
sg18
I101008
stp276
Rp277
(dp278
g30
(lp279
g49
ag11
ag12
ag13
ag14
ag15
ag16
ag17
ag18
ag19
ag20
asbsbsI10
g1
(g2
g3
Ntp280
Rp281
(dp282
g7
(lp283
sg9
g21
sg22
I01
sg23
g1
(g24
g25
(dp284
tp285
Rp286
(dp287
g30
(lp288
sbsg32
I00
sg33
g1
(g24
g25
(dp289
g17
I0
sg20
g35
(S'\x07\xdf\t\x12\t7\x02\x0b\x088'
p290
g43
tp291
Rp292
sg49
L10L
sg15
I1
sg11
g35
(S'\x07\xdf\t\x12\t7\x02\x0b\x088'
p293
g43
tp294
Rp295
sg12
g35
(S'\x07\xdf\t\x12\t93\x06\xe5\xa0'
p296
g43
tp297
Rp298
sg16
(dp299
sg19
g35
(S'\x07\xdf\t\x12\t7\x02\x0b\x088'
p300
g43
tp301
Rp302
sg13
F14.0
sg14
F14.0
sg18
I101008
stp303
Rp304
(dp305
g30
(lp306
g49
ag11
ag12
ag13
ag14
ag15
ag16
ag17
ag18
ag19
ag20
asbsbsI11
g1
(g2
g3
Ntp307
Rp308
(dp309
g7
(lp310
sg9
g21
sg22
I01
sg23
g1
(g24
g25
(dp311
tp312
Rp313
(dp314
g30
(lp315
sbsg32
I00
sg33
g1
(g24
g25
(dp316
g17
I0
sg20
g35
(S'\x07\xdf\t\x12\t7\x1e\x0b7\x18'
p317
g43
tp318
Rp319
sg49
L11L
sg15
I1
sg11
g35
(S'\x07\xdf\t\x12\t7\x1e\x0b7\x18'
p320
g43
tp321
Rp322
sg12
g35
(S'\x07\xdf\t\x12\t9\x0f\x02.\x98'
p323
g43
tp324
Rp325
sg16
(dp326
sg19
g35
(S'\x07\xdf\t\x12\t7\x1e\x0b7\x18'
p327
g43
tp328
Rp329
sg13
F0.0
sg14
F11.0
sg18
I101007
stp330
Rp331
(dp332
g30
(lp333
g49
ag11
ag12
ag13
ag14
ag15
ag16
ag17
ag18
ag19
ag20
asbsbsI12
g1
(g2
g3
Ntp334
Rp335
(dp336
g7
(lp337
sg9
g21
sg22
I01
sg23
g1
(g24
g25
(dp338
tp339
Rp340
(dp341
g30
(lp342
sbsg32
I00
sg33
g1
(g24
g25
(dp343
g17
I0
sg20
g35
(S'\x07\xdf\t\x12\t9\x0f\x03c0'
p344
g43
tp345
Rp346
sg49
L12L
sg15
I1
sg11
g35
(S'\x07\xdf\t\x12\t8\x05\x01_\x90'
p347
g43
tp348
Rp349
sg12
g35
(S'\x07\xdf\t\x12\t9\x15\x01\xb1\x98'
p350
g43
tp351
Rp352
sg16
(dp353
sg19
g35
(S'\x07\xdf\t\x12\t8\x05\x01_\x90'
p354
g43
tp355
Rp356
sg13
F0.0
sg14
F17.0
sg18
I101009
stp357
Rp358
(dp359
g30
(lp360
g49
ag11
ag12
ag13
ag14
ag15
ag16
ag17
ag18
ag19
ag20
asbsbsI13
g1
(g2
g3
Ntp361
Rp362
(dp363
g7
(lp364
sg9
g21
sg22
I01
sg23
g1
(g24
g25
(dp365
tp366
Rp367
(dp368
g30
(lp369
sbsg32
I00
sg33
g1
(g24
g25
(dp370
g17
I0
sg20
g35
(S'\x07\xdf\t\x12\t9\x15\x05zX'
p371
g43
tp372
Rp373
sg49
L13L
sg15
I1
sg11
g35
(S'\x07\xdf\t\x12\t8\t\x0bZ@'
p374
g43
tp375
Rp376
sg12
g35
(S'\x07\xdf\t\x12\t93\x06\xdd\xd0'
p377
g43
tp378
Rp379
sg16
(dp380
sg19
g35
(S'\x07\xdf\t\x12\t8\t\x0bZ@'
p381
g43
tp382
Rp383
sg13
F17.0
sg14
F17.0
sg18
I101009
stp384
Rp385
(dp386
g30
(lp387
g49
ag11
ag12
ag13
ag14
ag15
ag16
ag17
ag18
ag19
ag20
asbsbsI14
g1
(g2
g3
Ntp388
Rp389
(dp390
g7
(lp391
sg9
g21
sg22
I01
sg23
g1
(g24
g25
(dp392
tp393
Rp394
(dp395
g30
(lp396
sbsg32
I00
sg33
g1
(g24
g25
(dp397
g17
I0
sg20
g35
(S'\x07\xdf\t\x12\t9\x0b\n\xd9X'
p398
g43
tp399
Rp400
sg49
L14L
sg15
I1
sg11
g35
(S'\x07\xdf\t\x12\t9\x0b\n\xdd@'
p401
g43
tp402
Rp403
sg12
g35
(S'\x07\xdf\t\x12\t9\x0b\n\xdd@'
p404
g43
tp405
Rp406
sg16
(dp407
sg19
g35
(S'\x07\xdf\t\x12\t9\x0b\n\xdd@'
p408
g43
tp409
Rp410
sg13
F17.0
sg14
F11.0
sg18
I101004
stp411
Rp412
(dp413
g30
(lp414
g49
ag11
ag12
ag13
ag14
ag15
ag16
ag17
ag18
ag19
ag20
asbsbs.